target datalayout = "e-m:e-p270:32:32-p271:32:32-p272:64:64-i64:64-i128:128-f80:128-n8:16:32:64-S128"
target triple = "x86_64-pc-linux-gnu"

%struct.AVTextFormatter = type { ptr, i32, ptr, ptr, ptr, ptr, ptr, ptr, ptr, i32 }
%struct.AVTextFormatContext = type { ptr, ptr, ptr, ptr, ptr, ptr, i32, i32, [12 x i32], [12 x [100 x i32]], [12 x ptr], [12 x %struct.AVBPrint], i32, i32, i32, i32, i32, ptr, i32, ptr, i32 }
%struct.AVBPrint = type { ptr, i32, i32, i32, [1 x i8], [1000 x i8] }
%struct.AVTextFormatSection = type { i32, ptr, i32, [12 x i32], ptr, ptr, ptr, ptr, i32, ptr, ptr, ptr, ptr }

@.str = private unnamed_addr constant [30 x i8] c"Assertion %s failed at %s:%d\0A\00", align 1
@.str.2 = private unnamed_addr constant [34 x i8] c"fftools/textformat/avtextformat.c\00", align 1
@.str.15 = private unnamed_addr constant [5 x i8] c"tctx\00", align 1
@.str.16 = private unnamed_addr constant [44 x i8] c"key && tctx->level >= 0 && tctx->level < 12\00", align 1

; Function Attrs: nounwind uwtable
define void @avtext_print_integer(ptr noundef %0, ptr noundef %1, i64 noundef %2, i32 noundef %3) #0 {
  %5 = alloca ptr, align 8
  %6 = alloca ptr, align 8
  %7 = alloca i64, align 8
  %8 = alloca i32, align 4
  %9 = alloca ptr, align 8
  %10 = alloca i32, align 4
  store ptr %0, ptr %5, align 8, !tbaa !10
  store ptr %1, ptr %6, align 8, !tbaa !30
  store i64 %2, ptr %7, align 8, !tbaa !70
  store i32 %3, ptr %8, align 4, !tbaa !12
  call void @llvm.lifetime.start.p0(i64 8, ptr %9) #10
  br label %11

11:                                               ; preds = %4
  %12 = load ptr, ptr %5, align 8, !tbaa !10
  %13 = icmp ne ptr %12, null
  br i1 %13, label %15, label %14

14:                                               ; preds = %11
  call void (ptr, i32, ptr, ...) @av_log(ptr noundef null, i32 noundef 0, ptr noundef @.str, ptr noundef @.str.15, ptr noundef @.str.2, i32 noundef 298)
  call void @abort() #11
  unreachable

15:                                               ; preds = %11
  br label %16

16:                                               ; preds = %15
  br label %17

17:                                               ; preds = %16
  %18 = load ptr, ptr %5, align 8, !tbaa !10
  %19 = getelementptr inbounds nuw %struct.AVTextFormatContext, ptr %18, i32 0, i32 12
  %20 = load i32, ptr %19, align 8, !tbaa !45
  %21 = icmp eq i32 %20, 0
  br i1 %21, label %22, label %23

22:                                               ; preds = %17
  store i32 1, ptr %10, align 4
  br label %97

23:                                               ; preds = %17
  %24 = load ptr, ptr %5, align 8, !tbaa !10
  %25 = getelementptr inbounds nuw %struct.AVTextFormatContext, ptr %24, i32 0, i32 12
  %26 = load i32, ptr %25, align 8, !tbaa !45
  %27 = icmp eq i32 %26, -1
  br i1 %27, label %28, label %41

28:                                               ; preds = %23
  %29 = load i32, ptr %8, align 4, !tbaa !12
  %30 = and i32 %29, 1
  %31 = icmp ne i32 %30, 0
  br i1 %31, label %32, label %41

32:                                               ; preds = %28
  %33 = load ptr, ptr %5, align 8, !tbaa !10
  %34 = getelementptr inbounds nuw %struct.AVTextFormatContext, ptr %33, i32 0, i32 1
  %35 = load ptr, ptr %34, align 8, !tbaa !14
  %36 = getelementptr inbounds nuw %struct.AVTextFormatter, ptr %35, i32 0, i32 9
  %37 = load i32, ptr %36, align 8, !tbaa !77
  %38 = and i32 %37, 1
  %39 = icmp ne i32 %38, 0
  br i1 %39, label %41, label %40

40:                                               ; preds = %32
  store i32 1, ptr %10, align 4
  br label %97

41:                                               ; preds = %32, %28, %23
  br label %42

42:                                               ; preds = %41
  %43 = load ptr, ptr %6, align 8, !tbaa !30
  %44 = icmp ne ptr %43, null
  br i1 %44, label %45, label %55

45:                                               ; preds = %42
  %46 = load ptr, ptr %5, align 8, !tbaa !10
  %47 = getelementptr inbounds nuw %struct.AVTextFormatContext, ptr %46, i32 0, i32 7
  %48 = load i32, ptr %47, align 4, !tbaa !46
  %49 = icmp sge i32 %48, 0
  br i1 %49, label %50, label %55

50:                                               ; preds = %45
  %51 = load ptr, ptr %5, align 8, !tbaa !10
  %52 = getelementptr inbounds nuw %struct.AVTextFormatContext, ptr %51, i32 0, i32 7
  %53 = load i32, ptr %52, align 4, !tbaa !46
  %54 = icmp slt i32 %53, 12
  br i1 %54, label %56, label %55

55:                                               ; preds = %50, %45, %42
  call void (ptr, i32, ptr, ...) @av_log(ptr noundef null, i32 noundef 0, ptr noundef @.str, ptr noundef @.str.16, ptr noundef @.str.2, i32 noundef 308)
  call void @abort() #11
  unreachable

56:                                               ; preds = %50
  br label %57

57:                                               ; preds = %56
  br label %58

58:                                               ; preds = %57
  %59 = load ptr, ptr %5, align 8, !tbaa !10
  %60 = getelementptr inbounds nuw %struct.AVTextFormatContext, ptr %59, i32 0, i32 10
  %61 = load ptr, ptr %5, align 8, !tbaa !10
  %62 = getelementptr inbounds nuw %struct.AVTextFormatContext, ptr %61, i32 0, i32 7
  %63 = load i32, ptr %62, align 4, !tbaa !46
  %64 = sext i32 %63 to i64
  %65 = getelementptr inbounds [12 x ptr], ptr %60, i64 0, i64 %64
  %66 = load ptr, ptr %65, align 8, !tbaa !31
  store ptr %66, ptr %9, align 8, !tbaa !31
  %67 = load ptr, ptr %9, align 8, !tbaa !31
  %68 = getelementptr inbounds nuw %struct.AVTextFormatSection, ptr %67, i32 0, i32 8
  %69 = load i32, ptr %68, align 8, !tbaa !78
  %70 = icmp ne i32 %69, 0
  br i1 %70, label %78, label %71

71:                                               ; preds = %58
  %72 = load ptr, ptr %9, align 8, !tbaa !31
  %73 = getelementptr inbounds nuw %struct.AVTextFormatSection, ptr %72, i32 0, i32 6
  %74 = load ptr, ptr %73, align 8, !tbaa !79
  %75 = load ptr, ptr %6, align 8, !tbaa !30
  %76 = call ptr @av_dict_get(ptr noundef %74, ptr noundef %75, ptr noundef null, i32 noundef 0)
  %77 = icmp ne ptr %76, null
  br i1 %77, label %78, label %96

78:                                               ; preds = %71, %58
  %79 = load ptr, ptr %5, align 8, !tbaa !10
  %80 = getelementptr inbounds nuw %struct.AVTextFormatContext, ptr %79, i32 0, i32 1
  %81 = load ptr, ptr %80, align 8, !tbaa !14
  %82 = getelementptr inbounds nuw %struct.AVTextFormatter, ptr %81, i32 0, i32 7
  %83 = load ptr, ptr %82, align 8, !tbaa !80
  %84 = load ptr, ptr %5, align 8, !tbaa !10
  %85 = load ptr, ptr %6, align 8, !tbaa !30
  %86 = load i64, ptr %7, align 8, !tbaa !70
  call void %83(ptr noundef %84, ptr noundef %85, i64 noundef %86)
  %87 = load ptr, ptr %5, align 8, !tbaa !10
  %88 = getelementptr inbounds nuw %struct.AVTextFormatContext, ptr %87, i32 0, i32 8
  %89 = load ptr, ptr %5, align 8, !tbaa !10
  %90 = getelementptr inbounds nuw %struct.AVTextFormatContext, ptr %89, i32 0, i32 7
  %91 = load i32, ptr %90, align 4, !tbaa !46
  %92 = sext i32 %91 to i64
  %93 = getelementptr inbounds [12 x i32], ptr %88, i64 0, i64 %92
  %94 = load i32, ptr %93, align 4, !tbaa !12
  %95 = add i32 %94, 1
  store i32 %95, ptr %93, align 4, !tbaa !12
  br label %96

96:                                               ; preds = %78, %71
  store i32 0, ptr %10, align 4
  br label %97

97:                                               ; preds = %96, %40, %22
  call void @llvm.lifetime.end.p0(i64 8, ptr %9) #10
  %98 = load i32, ptr %10, align 4
  switch i32 %98, label %100 [
    i32 0, label %99
    i32 1, label %99
  ]

99:                                               ; preds = %97, %97
  ret void

100:                                              ; preds = %97
  unreachable
}