; Function Attrs: nounwind uwtable
define void @avtext_print_integer(ptr noundef %0, ptr noundef %1, i64 noundef %2, i32 noundef %3) local_unnamed_addr #0 {
  %.not = icmp eq ptr %0, null
  br i1 %.not, label %5, label %6

5:                                                ; preds = %4
  tail call void (ptr, i32, ptr, ...) @av_log(ptr noundef null, i32 noundef 0, ptr noundef nonnull @.str, ptr noundef nonnull @.str.15, ptr noundef nonnull @.str.2, i32 noundef 298) #12
  tail call void @abort() #13
  unreachable

6:                                                ; preds = %4
  %7 = getelementptr inbounds nuw i8, ptr %0, i64 17288
  %8 = load i32, ptr %7, align 8, !tbaa !37
  switch i32 %8, label %17 [
    i32 0, label %44
    i32 -1, label %9
  ]

9:                                                ; preds = %6
  %10 = and i32 %3, 1
  %.not21 = icmp eq i32 %10, 0
  br i1 %.not21, label %17, label %11

11:                                               ; preds = %9
  %12 = getelementptr inbounds nuw i8, ptr %0, i64 8
  %13 = load ptr, ptr %12, align 8, !tbaa !9
  %14 = getelementptr inbounds nuw i8, ptr %13, i64 72
  %15 = load i32, ptr %14, align 8, !tbaa !65
  %16 = and i32 %15, 1
  %.not22 = icmp eq i32 %16, 0
  br i1 %.not22, label %44, label %17

17:                                               ; preds = %6, %9, %11
  %.not23 = icmp eq ptr %1, null
  br i1 %.not23, label %21, label %18

18:                                               ; preds = %17
  %19 = getelementptr inbounds nuw i8, ptr %0, i64 52
  %20 = load i32, ptr %19, align 4, !tbaa !38
  %or.cond = icmp ult i32 %20, 12
  br i1 %or.cond, label %22, label %21

21:                                               ; preds = %18, %17
  tail call void (ptr, i32, ptr, ...) @av_log(ptr noundef null, i32 noundef 0, ptr noundef nonnull @.str, ptr noundef nonnull @.str.16, ptr noundef nonnull @.str.2, i32 noundef 308) #12
  tail call void @abort() #13
  unreachable

22:                                               ; preds = %18
  %23 = getelementptr inbounds nuw i8, ptr %0, i64 4904
  %24 = zext nneg i32 %20 to i64
  %25 = getelementptr inbounds nuw [12 x ptr], ptr %23, i64 0, i64 %24
  %26 = load ptr, ptr %25, align 8, !tbaa !60
  %27 = getelementptr inbounds nuw i8, ptr %26, i64 104
  %28 = load i32, ptr %27, align 8, !tbaa !66
  %.not24 = icmp eq i32 %28, 0
  br i1 %.not24, label %29, label %33

29:                                               ; preds = %22
  %30 = getelementptr inbounds nuw i8, ptr %26, i64 88
  %31 = load ptr, ptr %30, align 8, !tbaa !67
  %32 = tail call ptr @av_dict_get(ptr noundef %31, ptr noundef nonnull %1, ptr noundef null, i32 noundef 0) #12
  %.not25 = icmp eq ptr %32, null
  br i1 %.not25, label %44, label %33

33:                                               ; preds = %29, %22
  %34 = getelementptr inbounds nuw i8, ptr %0, i64 8
  %35 = load ptr, ptr %34, align 8, !tbaa !9
  %36 = getelementptr inbounds nuw i8, ptr %35, i64 56
  %37 = load ptr, ptr %36, align 8, !tbaa !68
  tail call void %37(ptr noundef nonnull %0, ptr noundef nonnull %1, i64 noundef %2) #12
  %38 = getelementptr inbounds nuw i8, ptr %0, i64 56
  %39 = load i32, ptr %19, align 4, !tbaa !38
  %40 = sext i32 %39 to i64
  %41 = getelementptr inbounds [12 x i32], ptr %38, i64 0, i64 %40
  %42 = load i32, ptr %41, align 4, !tbaa !59
  %43 = add i32 %42, 1
  store i32 %43, ptr %41, align 4, !tbaa !59
  br label %44

44:                                               ; preds = %29, %33, %11, %6
  ret void
}